target datalayout = "e-m:e-p270:32:32-p271:32:32-p272:64:64-i64:64-i128:128-f80:128-n8:16:32:64-S128"
target triple = "x86_64-pc-linux-gnu"

%struct.search_path_bfs_t = type { ptr, ptr, ptr, ptr }
%struct.search_path_queue_tag = type { ptr, ptr }

@transcoder_table = internal global ptr null, align 8

; Function Attrs: nounwind sspstrong uwtable
define internal i32 @transcode_search_path(ptr noundef %0, ptr noundef %1, ptr noundef %2, ptr noundef %3) #0 {
  %5 = alloca i32, align 4
  %6 = alloca ptr, align 8
  %7 = alloca ptr, align 8
  %8 = alloca ptr, align 8
  %9 = alloca ptr, align 8
  %10 = alloca %struct.search_path_bfs_t, align 8
  %11 = alloca ptr, align 8
  %12 = alloca i64, align 8
  %13 = alloca ptr, align 8
  %14 = alloca i32, align 4
  %15 = alloca i32, align 4
  %16 = alloca i32, align 4
  %17 = alloca ptr, align 8
  %18 = alloca i32, align 4
  store ptr %0, ptr %6, align 8, !tbaa !21
  store ptr %1, ptr %7, align 8, !tbaa !21
  store ptr %2, ptr %8, align 8, !tbaa !23
  store ptr %3, ptr %9, align 8, !tbaa !23
  call void @llvm.lifetime.start.p0(i64 32, ptr %10) #25
  call void @llvm.lifetime.start.p0(i64 8, ptr %11) #25
  call void @llvm.lifetime.start.p0(i64 8, ptr %12) #25
  call void @llvm.lifetime.start.p0(i64 8, ptr %13) #25
  call void @llvm.lifetime.start.p0(i64 4, ptr %14) #25
  call void @llvm.lifetime.start.p0(i64 4, ptr %15) #25
  store i32 -1, ptr %15, align 4, !tbaa !29
  %19 = load ptr, ptr %6, align 8, !tbaa !21
  %20 = load ptr, ptr %7, align 8, !tbaa !21
  %21 = call i32 @rb_st_locale_insensitive_strcasecmp(ptr noundef %19, ptr noundef %20) #29
  %22 = icmp eq i32 %21, 0
  br i1 %22, label %23, label %24

23:                                               ; preds = %4
  store i32 -1, ptr %5, align 4
  store i32 1, ptr %16, align 4
  br label %159

24:                                               ; preds = %4
  %25 = call noalias nonnull ptr @ruby_xmalloc(i64 noundef 16) #27
  store ptr %25, ptr %11, align 8, !tbaa !118
  %26 = load ptr, ptr %6, align 8, !tbaa !21
  %27 = load ptr, ptr %11, align 8, !tbaa !118
  %28 = getelementptr inbounds nuw %struct.search_path_queue_tag, ptr %27, i32 0, i32 1
  store ptr %26, ptr %28, align 8, !tbaa !120
  %29 = load ptr, ptr %11, align 8, !tbaa !118
  %30 = getelementptr inbounds nuw %struct.search_path_queue_tag, ptr %29, i32 0, i32 0
  store ptr null, ptr %30, align 8, !tbaa !122
  %31 = load ptr, ptr %11, align 8, !tbaa !118
  %32 = getelementptr inbounds nuw %struct.search_path_queue_tag, ptr %31, i32 0, i32 0
  %33 = getelementptr inbounds nuw %struct.search_path_bfs_t, ptr %10, i32 0, i32 2
  store ptr %32, ptr %33, align 8, !tbaa !123
  %34 = load ptr, ptr %11, align 8, !tbaa !118
  %35 = getelementptr inbounds nuw %struct.search_path_bfs_t, ptr %10, i32 0, i32 1
  store ptr %34, ptr %35, align 8, !tbaa !126
  %36 = call ptr @rb_st_init_strcasetable()
  %37 = getelementptr inbounds nuw %struct.search_path_bfs_t, ptr %10, i32 0, i32 0
  store ptr %36, ptr %37, align 8, !tbaa !127
  %38 = getelementptr inbounds nuw %struct.search_path_bfs_t, ptr %10, i32 0, i32 0
  %39 = load ptr, ptr %38, align 8, !tbaa !127
  %40 = load ptr, ptr %6, align 8, !tbaa !21
  %41 = ptrtoint ptr %40 to i64
  call void @rb_st_add_direct(ptr noundef %39, i64 noundef %41, i64 noundef 0)
  br label %42

42:                                               ; preds = %87, %67, %24
  %43 = getelementptr inbounds nuw %struct.search_path_bfs_t, ptr %10, i32 0, i32 1
  %44 = load ptr, ptr %43, align 8, !tbaa !126
  %45 = icmp ne ptr %44, null
  br i1 %45, label %46, label %97

46:                                               ; preds = %42
  %47 = getelementptr inbounds nuw %struct.search_path_bfs_t, ptr %10, i32 0, i32 1
  %48 = load ptr, ptr %47, align 8, !tbaa !126
  store ptr %48, ptr %11, align 8, !tbaa !118
  %49 = load ptr, ptr %11, align 8, !tbaa !118
  %50 = getelementptr inbounds nuw %struct.search_path_queue_tag, ptr %49, i32 0, i32 0
  %51 = load ptr, ptr %50, align 8, !tbaa !122
  %52 = getelementptr inbounds nuw %struct.search_path_bfs_t, ptr %10, i32 0, i32 1
  store ptr %51, ptr %52, align 8, !tbaa !126
  %53 = getelementptr inbounds nuw %struct.search_path_bfs_t, ptr %10, i32 0, i32 1
  %54 = load ptr, ptr %53, align 8, !tbaa !126
  %55 = icmp ne ptr %54, null
  br i1 %55, label %59, label %56

56:                                               ; preds = %46
  %57 = getelementptr inbounds nuw %struct.search_path_bfs_t, ptr %10, i32 0, i32 1
  %58 = getelementptr inbounds nuw %struct.search_path_bfs_t, ptr %10, i32 0, i32 2
  store ptr %57, ptr %58, align 8, !tbaa !123
  br label %59

59:                                               ; preds = %56, %46
  %60 = load ptr, ptr @transcoder_table, align 8, !tbaa !7
  %61 = load ptr, ptr %11, align 8, !tbaa !118
  %62 = getelementptr inbounds nuw %struct.search_path_queue_tag, ptr %61, i32 0, i32 1
  %63 = load ptr, ptr %62, align 8, !tbaa !120
  %64 = ptrtoint ptr %63 to i64
  %65 = call i32 @rb_st_lookup(ptr noundef %60, i64 noundef %64, ptr noundef %12)
  %66 = icmp ne i32 %65, 0
  br i1 %66, label %69, label %67

67:                                               ; preds = %59
  %68 = load ptr, ptr %11, align 8, !tbaa !118
  call void @ruby_xfree(ptr noundef %68)
  br label %42, !llvm.loop !128

69:                                               ; preds = %59
  %70 = load i64, ptr %12, align 8, !tbaa !12
  %71 = inttoptr i64 %70 to ptr
  store ptr %71, ptr %13, align 8, !tbaa !7
  %72 = load ptr, ptr %13, align 8, !tbaa !7
  %73 = load ptr, ptr %7, align 8, !tbaa !21
  %74 = ptrtoint ptr %73 to i64
  %75 = call i32 @rb_st_lookup(ptr noundef %72, i64 noundef %74, ptr noundef %12)
  %76 = icmp ne i32 %75, 0
  br i1 %76, label %77, label %87

77:                                               ; preds = %69
  %78 = getelementptr inbounds nuw %struct.search_path_bfs_t, ptr %10, i32 0, i32 0
  %79 = load ptr, ptr %78, align 8, !tbaa !127
  %80 = load ptr, ptr %7, align 8, !tbaa !21
  %81 = ptrtoint ptr %80 to i64
  %82 = load ptr, ptr %11, align 8, !tbaa !118
  %83 = getelementptr inbounds nuw %struct.search_path_queue_tag, ptr %82, i32 0, i32 1
  %84 = load ptr, ptr %83, align 8, !tbaa !120
  %85 = ptrtoint ptr %84 to i64
  call void @rb_st_add_direct(ptr noundef %79, i64 noundef %81, i64 noundef %85)
  %86 = load ptr, ptr %11, align 8, !tbaa !118
  call void @ruby_xfree(ptr noundef %86)
  store i32 1, ptr %14, align 4, !tbaa !29
  br label %98

87:                                               ; preds = %69
  %88 = load ptr, ptr %11, align 8, !tbaa !118
  %89 = getelementptr inbounds nuw %struct.search_path_queue_tag, ptr %88, i32 0, i32 1
  %90 = load ptr, ptr %89, align 8, !tbaa !120
  %91 = getelementptr inbounds nuw %struct.search_path_bfs_t, ptr %10, i32 0, i32 3
  store ptr %90, ptr %91, align 8, !tbaa !129
  %92 = load ptr, ptr %13, align 8, !tbaa !7
  %93 = ptrtoint ptr %10 to i64
  %94 = call i32 @rb_st_foreach(ptr noundef %92, ptr noundef @transcode_search_path_i, i64 noundef %93)
  %95 = getelementptr inbounds nuw %struct.search_path_bfs_t, ptr %10, i32 0, i32 3
  store ptr null, ptr %95, align 8, !tbaa !129
  %96 = load ptr, ptr %11, align 8, !tbaa !118
  call void @ruby_xfree(ptr noundef %96)
  br label %42, !llvm.loop !128

97:                                               ; preds = %42
  store i32 0, ptr %14, align 4, !tbaa !29
  br label %98

98:                                               ; preds = %97, %77
  br label %99

99:                                               ; preds = %103, %98
  %100 = getelementptr inbounds nuw %struct.search_path_bfs_t, ptr %10, i32 0, i32 1
  %101 = load ptr, ptr %100, align 8, !tbaa !126
  %102 = icmp ne ptr %101, null
  br i1 %102, label %103, label %111

103:                                              ; preds = %99
  %104 = getelementptr inbounds nuw %struct.search_path_bfs_t, ptr %10, i32 0, i32 1
  %105 = load ptr, ptr %104, align 8, !tbaa !126
  store ptr %105, ptr %11, align 8, !tbaa !118
  %106 = load ptr, ptr %11, align 8, !tbaa !118
  %107 = getelementptr inbounds nuw %struct.search_path_queue_tag, ptr %106, i32 0, i32 0
  %108 = load ptr, ptr %107, align 8, !tbaa !122
  %109 = getelementptr inbounds nuw %struct.search_path_bfs_t, ptr %10, i32 0, i32 1
  store ptr %108, ptr %109, align 8, !tbaa !126
  %110 = load ptr, ptr %11, align 8, !tbaa !118
  call void @ruby_xfree(ptr noundef %110)
  br label %99, !llvm.loop !130

111:                                              ; preds = %99
  %112 = load i32, ptr %14, align 4, !tbaa !29
  %113 = icmp ne i32 %112, 0
  br i1 %113, label %114, label %155

114:                                              ; preds = %111
  call void @llvm.lifetime.start.p0(i64 8, ptr %17) #25
  %115 = load ptr, ptr %7, align 8, !tbaa !21
  store ptr %115, ptr %17, align 8, !tbaa !21
  call void @llvm.lifetime.start.p0(i64 4, ptr %18) #25
  store i32 0, ptr %15, align 4, !tbaa !29
  br label %116

116:                                              ; preds = %126, %114
  br label %117

117:                                              ; preds = %116
  %118 = getelementptr inbounds nuw %struct.search_path_bfs_t, ptr %10, i32 0, i32 0
  %119 = load ptr, ptr %118, align 8, !tbaa !127
  %120 = load ptr, ptr %17, align 8, !tbaa !21
  %121 = ptrtoint ptr %120 to i64
  %122 = call i32 @rb_st_lookup(ptr noundef %119, i64 noundef %121, ptr noundef %12)
  %123 = load i64, ptr %12, align 8, !tbaa !12
  %124 = icmp ne i64 %123, 0
  br i1 %124, label %126, label %125

125:                                              ; preds = %117
  br label %131

126:                                              ; preds = %117
  %127 = load i32, ptr %15, align 4, !tbaa !29
  %128 = add i32 %127, 1
  store i32 %128, ptr %15, align 4, !tbaa !29
  %129 = load i64, ptr %12, align 8, !tbaa !12
  %130 = inttoptr i64 %129 to ptr
  store ptr %130, ptr %17, align 8, !tbaa !21
  br label %116

131:                                              ; preds = %125
  %132 = load i32, ptr %15, align 4, !tbaa !29
  store i32 %132, ptr %18, align 4, !tbaa !29
  %133 = load ptr, ptr %7, align 8, !tbaa !21
  store ptr %133, ptr %17, align 8, !tbaa !21
  br label %134

134:                                              ; preds = %144, %131
  br label %135

135:                                              ; preds = %134
  %136 = getelementptr inbounds nuw %struct.search_path_bfs_t, ptr %10, i32 0, i32 0
  %137 = load ptr, ptr %136, align 8, !tbaa !127
  %138 = load ptr, ptr %17, align 8, !tbaa !21
  %139 = ptrtoint ptr %138 to i64
  %140 = call i32 @rb_st_lookup(ptr noundef %137, i64 noundef %139, ptr noundef %12)
  %141 = load i64, ptr %12, align 8, !tbaa !12
  %142 = icmp ne i64 %141, 0
  br i1 %142, label %144, label %143

143:                                              ; preds = %135
  br label %154

144:                                              ; preds = %135
  %145 = load ptr, ptr %8, align 8, !tbaa !23
  %146 = load i64, ptr %12, align 8, !tbaa !12
  %147 = inttoptr i64 %146 to ptr
  %148 = load ptr, ptr %17, align 8, !tbaa !21
  %149 = load i32, ptr %18, align 4, !tbaa !29
  %150 = add i32 %149, -1
  store i32 %150, ptr %18, align 4, !tbaa !29
  %151 = load ptr, ptr %9, align 8, !tbaa !23
  call void %145(ptr noundef %147, ptr noundef %148, i32 noundef %150, ptr noundef %151)
  %152 = load i64, ptr %12, align 8, !tbaa !12
  %153 = inttoptr i64 %152 to ptr
  store ptr %153, ptr %17, align 8, !tbaa !21
  br label %134

154:                                              ; preds = %143
  call void @llvm.lifetime.end.p0(i64 4, ptr %18) #25
  call void @llvm.lifetime.end.p0(i64 8, ptr %17) #25
  br label %155

155:                                              ; preds = %154, %111
  %156 = getelementptr inbounds nuw %struct.search_path_bfs_t, ptr %10, i32 0, i32 0
  %157 = load ptr, ptr %156, align 8, !tbaa !127
  call void @rb_st_free_table(ptr noundef %157)
  %158 = load i32, ptr %15, align 4, !tbaa !29
  store i32 %158, ptr %5, align 4
  store i32 1, ptr %16, align 4
  br label %159

159:                                              ; preds = %155, %23
  call void @llvm.lifetime.end.p0(i64 4, ptr %15) #25
  call void @llvm.lifetime.end.p0(i64 4, ptr %14) #25
  call void @llvm.lifetime.end.p0(i64 8, ptr %13) #25
  call void @llvm.lifetime.end.p0(i64 8, ptr %12) #25
  call void @llvm.lifetime.end.p0(i64 8, ptr %11) #25
  call void @llvm.lifetime.end.p0(i64 32, ptr %10) #25
  %160 = load i32, ptr %5, align 4
  ret i32 %160
}