; Function Attrs: nounwind sspstrong uwtable
define internal fastcc i32 @transcode_search_path(ptr noundef %0, ptr noundef %1, ptr noundef readonly captures(none) %2, ptr noundef nonnull %3) unnamed_addr #0 {
  %5 = alloca %struct.search_path_bfs_t, align 8
  %6 = alloca i64, align 8
  call void @llvm.lifetime.start.p0(i64 32, ptr nonnull %5) #22
  call void @llvm.lifetime.start.p0(i64 8, ptr nonnull %6) #22
  %7 = tail call i32 @rb_st_locale_insensitive_strcasecmp(ptr noundef %0, ptr noundef %1) #25
  %8 = icmp eq i32 %7, 0
  br i1 %8, label %60, label %.lr.ph

.lr.ph:                                           ; preds = %4
  %9 = tail call noalias nonnull dereferenceable(16) ptr @ruby_xmalloc(i64 noundef 16) #24
  %10 = getelementptr inbounds nuw i8, ptr %9, i64 8
  store ptr %0, ptr %10, align 8, !tbaa !173
  store ptr null, ptr %9, align 8, !tbaa !176
  %11 = getelementptr inbounds nuw i8, ptr %5, i64 16
  store ptr %9, ptr %11, align 8, !tbaa !177
  %12 = getelementptr inbounds nuw i8, ptr %5, i64 8
  %13 = tail call ptr @rb_st_init_strcasetable() #22
  store ptr %13, ptr %5, align 8, !tbaa !180
  %14 = ptrtoint ptr %0 to i64
  tail call void @rb_st_add_direct(ptr noundef %13, i64 noundef %14, i64 noundef 0) #22
  %15 = ptrtoint ptr %1 to i64
  %16 = getelementptr inbounds nuw i8, ptr %5, i64 24
  %17 = ptrtoint ptr %5 to i64
  br label %18

18:                                               ; preds = %.lr.ph, %.backedge
  %19 = phi ptr [ %9, %.lr.ph ], [ %28, %.backedge ]
  %20 = load ptr, ptr %19, align 8, !tbaa !176
  store ptr %20, ptr %12, align 8, !tbaa !181
  %.not42 = icmp eq ptr %20, null
  br i1 %.not42, label %21, label %22

21:                                               ; preds = %18
  store ptr %12, ptr %11, align 8, !tbaa !177
  br label %22

22:                                               ; preds = %21, %18
  %23 = load ptr, ptr @transcoder_table, align 8, !tbaa !7
  %24 = getelementptr inbounds nuw i8, ptr %19, i64 8
  %25 = load ptr, ptr %24, align 8, !tbaa !173
  %26 = ptrtoint ptr %25 to i64
  %27 = call i32 @rb_st_lookup(ptr noundef %23, i64 noundef %26, ptr noundef nonnull %6) #22
  %.not43 = icmp eq i32 %27, 0
  br i1 %.not43, label %.backedge, label %29

.backedge:                                        ; preds = %22, %33
  call void @ruby_xfree(ptr noundef nonnull %19) #22
  %28 = load ptr, ptr %12, align 8, !tbaa !181
  %.not = icmp eq ptr %28, null
  br i1 %.not, label %.loopexit, label %18, !llvm.loop !182

29:                                               ; preds = %22
  %30 = load i64, ptr %6, align 8, !tbaa !22
  %31 = inttoptr i64 %30 to ptr
  %32 = call i32 @rb_st_lookup(ptr noundef %31, i64 noundef %15, ptr noundef nonnull %6) #22
  %.not44 = icmp eq i32 %32, 0
  br i1 %.not44, label %33, label %.loopexit49

33:                                               ; preds = %29
  %34 = load ptr, ptr %24, align 8, !tbaa !173
  store ptr %34, ptr %16, align 8, !tbaa !183
  %35 = call i32 @rb_st_foreach(ptr noundef %31, ptr noundef nonnull @transcode_search_path_i, i64 noundef %17) #22
  store ptr null, ptr %16, align 8, !tbaa !183
  br label %.backedge

.loopexit49:                                      ; preds = %29
  %36 = load ptr, ptr %5, align 8, !tbaa !180
  %37 = load ptr, ptr %24, align 8, !tbaa !173
  %38 = ptrtoint ptr %37 to i64
  call void @rb_st_add_direct(ptr noundef %36, i64 noundef %15, i64 noundef %38) #22
  call void @ruby_xfree(ptr noundef nonnull %19) #22
  %.pre = load ptr, ptr %12, align 8, !tbaa !181
  %.not4557 = icmp eq ptr %.pre, null
  br i1 %.not4557, label %.loopexit70, label %.lr.ph58

.lr.ph58:                                         ; preds = %.loopexit49, %.lr.ph58
  %39 = phi ptr [ %41, %.lr.ph58 ], [ %.pre, %.loopexit49 ]
  %40 = load ptr, ptr %39, align 8, !tbaa !176
  store ptr %40, ptr %12, align 8, !tbaa !181
  call void @ruby_xfree(ptr noundef nonnull %39) #22
  %41 = load ptr, ptr %12, align 8, !tbaa !181
  %.not45 = icmp eq ptr %41, null
  br i1 %.not45, label %.loopexit70, label %.lr.ph58, !llvm.loop !184

.loopexit70:                                      ; preds = %.lr.ph58, %.loopexit49
  %42 = ptrtoint ptr %1 to i64
  br label %43

43:                                               ; preds = %43, %.loopexit70
  %.135 = phi i32 [ 0, %.loopexit70 ], [ %47, %43 ]
  %.033 = phi i64 [ %42, %.loopexit70 ], [ %46, %43 ]
  %44 = load ptr, ptr %5, align 8, !tbaa !180
  %45 = call i32 @rb_st_lookup(ptr noundef %44, i64 noundef %.033, ptr noundef nonnull %6) #22
  %46 = load i64, ptr %6, align 8, !tbaa !22
  %.not47 = icmp eq i64 %46, 0
  %47 = add i32 %.135, 1
  br i1 %.not47, label %.preheader, label %43

.preheader:                                       ; preds = %43
  %48 = load ptr, ptr %5, align 8, !tbaa !180
  %49 = call i32 @rb_st_lookup(ptr noundef %48, i64 noundef %42, ptr noundef nonnull %6) #22
  %50 = load i64, ptr %6, align 8, !tbaa !22
  %.not4859 = icmp eq i64 %50, 0
  br i1 %.not4859, label %.loopexit, label %.lr.ph62

.lr.ph62:                                         ; preds = %.preheader, %.lr.ph62
  %51 = phi i64 [ %58, %.lr.ph62 ], [ %50, %.preheader ]
  %.061 = phi i32 [ %53, %.lr.ph62 ], [ %.135, %.preheader ]
  %.160 = phi ptr [ %55, %.lr.ph62 ], [ %1, %.preheader ]
  %52 = inttoptr i64 %51 to ptr
  %53 = add i32 %.061, -1
  call void %2(ptr noundef nonnull %52, ptr noundef %.160, i32 noundef %53, ptr noundef nonnull %3) #22, !callees !185
  %54 = load i64, ptr %6, align 8, !tbaa !22
  %55 = inttoptr i64 %54 to ptr
  %56 = load ptr, ptr %5, align 8, !tbaa !180
  %57 = call i32 @rb_st_lookup(ptr noundef %56, i64 noundef %54, ptr noundef nonnull %6) #22
  %58 = load i64, ptr %6, align 8, !tbaa !22
  %.not48 = icmp eq i64 %58, 0
  br i1 %.not48, label %.loopexit, label %.lr.ph62

.loopexit:                                        ; preds = %.backedge, %.lr.ph62, %.preheader
  %.034 = phi i32 [ %.135, %.preheader ], [ %.135, %.lr.ph62 ], [ -1, %.backedge ]
  %59 = load ptr, ptr %5, align 8, !tbaa !180
  call void @rb_st_free_table(ptr noundef %59) #22
  br label %60

60:                                               ; preds = %4, %.loopexit
  %.037 = phi i32 [ %.034, %.loopexit ], [ -1, %4 ]
  call void @llvm.lifetime.end.p0(i64 8, ptr nonnull %6) #22
  call void @llvm.lifetime.end.p0(i64 32, ptr nonnull %5) #22
  ret i32 %.037
}